; Function Attrs: nounwind uwtable
define void @Java_com_sun_java_swing_plaf_gtk_GTKEngine_native_1paint_1check(ptr noundef %0, ptr nocapture noundef readnone %1, i32 noundef %2, i32 noundef %3, ptr noundef %4, i32 noundef %5, i32 noundef %6, i32 noundef %7, i32 noundef %8) local_unnamed_addr #0 {
  %10 = load ptr, ptr @gtk, align 8
  %11 = getelementptr inbounds i8, ptr %10, i64 248
  %12 = load ptr, ptr %11, align 8
  tail call void %12() #4
  %13 = load ptr, ptr @gtk, align 8
  %14 = getelementptr inbounds i8, ptr %13, i64 160
  %15 = load ptr, ptr %14, align 8
  %16 = load ptr, ptr %0, align 8
  %17 = getelementptr inbounds i8, ptr %16, i64 1312
  %18 = load ptr, ptr %17, align 8
  %19 = tail call i32 %18(ptr noundef nonnull %0, ptr noundef %4) #4
  %spec.store.select.i = tail call i32 @llvm.smin.i32(i32 %19, i32 127)
  tail call void @llvm.memset.p0.i64(ptr noundef nonnull align 16 dereferenceable(382) @conversionBuffer, i8 0, i64 382, i1 false)
  %20 = load ptr, ptr %0, align 8
  %21 = getelementptr inbounds i8, ptr %20, i64 1768
  %22 = load ptr, ptr %21, align 8
  tail call void %22(ptr noundef nonnull %0, ptr noundef %4, i32 noundef 0, i32 noundef %spec.store.select.i, ptr noundef nonnull @conversionBuffer) #4
  tail call void %15(i32 noundef %2, i32 noundef %3, ptr noundef nonnull @conversionBuffer, i32 noundef %5, i32 noundef %6, i32 noundef %7, i32 noundef %8) #4
  %23 = load ptr, ptr @gtk, align 8
  %24 = getelementptr inbounds i8, ptr %23, i64 256
  %25 = load ptr, ptr %24, align 8
  tail call void %25() #4
  ret void
}